target datalayout = "e-m:e-p270:32:32-p271:32:32-p272:64:64-i64:64-i128:128-f80:128-n8:16:32:64-S128"
target triple = "x86_64-pc-linux-gnu"

; Function Attrs: null_pointer_is_valid sspstrong uwtable
define internal i32 @get_preamble_length(ptr noundef %0) #0 {
  %2 = alloca i32, align 4
  %3 = alloca ptr, align 8
  %4 = alloca i32, align 4
  %5 = alloca i8, align 1
  %6 = alloca i32, align 4
  store ptr %0, ptr %3, align 8
  call void @llvm.lifetime.start.p0(i64 4, ptr %4) #8
  store i32 0, ptr %4, align 4
  %7 = load ptr, ptr %3, align 8
  %8 = load i32, ptr %4, align 4
  %9 = call zeroext i8 @tvb_get_uint8(ptr noundef %7, i32 noundef %8)
  %10 = zext i8 %9 to i32
  %11 = icmp eq i32 80, %10
  br i1 %11, label %12, label %13

12:                                               ; preds = %1
  store i32 1, ptr %4, align 4
  br label %13

13:                                               ; preds = %12, %1
  br label %14

14:                                               ; preds = %28, %13
  %15 = load ptr, ptr %3, align 8
  %16 = load i32, ptr %4, align 4
  %17 = call zeroext i8 @tvb_get_uint8(ptr noundef %15, i32 noundef %16)
  %18 = zext i8 %17 to i32
  %19 = icmp eq i32 %18, 85
  br i1 %19, label %20, label %26

20:                                               ; preds = %14
  %21 = load i32, ptr %4, align 4
  %22 = add i32 %21, 2
  %23 = load ptr, ptr %3, align 8
  %24 = call i32 @tvb_reported_length(ptr noundef %23)
  %25 = icmp ult i32 %22, %24
  br label %26

26:                                               ; preds = %20, %14
  %27 = phi i1 [ false, %14 ], [ %25, %20 ]
  br i1 %27, label %28, label %31

28:                                               ; preds = %26
  %29 = load i32, ptr %4, align 4
  %30 = add i32 %29, 1
  store i32 %30, ptr %4, align 4
  br label %14, !llvm.loop !7

31:                                               ; preds = %26
  call void @llvm.lifetime.start.p0(i64 1, ptr %5) #8
  %32 = load ptr, ptr %3, align 8
  %33 = load i32, ptr %4, align 4
  %34 = call zeroext i8 @tvb_get_uint8(ptr noundef %32, i32 noundef %33)
  store i8 %34, ptr %5, align 1
  %35 = load i8, ptr %5, align 1
  %36 = zext i8 %35 to i32
  switch i32 %36, label %43 [
    i32 230, label %37
    i32 76, label %37
    i32 127, label %37
    i32 179, label %37
    i32 7, label %37
    i32 25, label %37
    i32 213, label %37
    i32 97, label %40
    i32 82, label %40
    i32 158, label %40
    i32 42, label %40
  ]

37:                                               ; preds = %31, %31, %31, %31, %31, %31, %31
  %38 = load i32, ptr %4, align 4
  %39 = add i32 %38, 1
  store i32 %39, ptr %2, align 4
  store i32 1, ptr %6, align 4
  br label %44

40:                                               ; preds = %31, %31, %31, %31
  %41 = load i32, ptr %4, align 4
  %42 = add i32 %41, 2
  store i32 %42, ptr %2, align 4
  store i32 1, ptr %6, align 4
  br label %44

43:                                               ; preds = %31
  store i32 8, ptr %2, align 4
  store i32 1, ptr %6, align 4
  br label %44

44:                                               ; preds = %43, %40, %37
  call void @llvm.lifetime.end.p0(i64 1, ptr %5) #8
  call void @llvm.lifetime.end.p0(i64 4, ptr %4) #8
  %45 = load i32, ptr %2, align 4
  ret i32 %45
}