; Function Attrs: null_pointer_is_valid sspstrong uwtable
define internal fastcc noundef i32 @get_preamble_length(ptr noundef %0) unnamed_addr #0 {
  %2 = tail call zeroext i8 @tvb_get_uint8(ptr noundef %0, i32 noundef 0)
  %3 = icmp eq i8 %2, 80
  %spec.select = zext i1 %3 to i32
  %4 = tail call zeroext i8 @tvb_get_uint8(ptr noundef %0, i32 noundef %spec.select)
  %5 = icmp eq i8 %4, 85
  br i1 %5, label %.lr.ph, label %.critedge

.lr.ph:                                           ; preds = %1, %9
  %.113 = phi i32 [ %10, %9 ], [ %spec.select, %1 ]
  %6 = add nuw i32 %.113, 2
  %7 = tail call i32 @tvb_reported_length(ptr noundef %0)
  %8 = icmp ult i32 %6, %7
  br i1 %8, label %9, label %.critedge

9:                                                ; preds = %.lr.ph
  %10 = add nuw i32 %.113, 1
  %11 = tail call zeroext i8 @tvb_get_uint8(ptr noundef %0, i32 noundef %10)
  %12 = icmp eq i8 %11, 85
  br i1 %12, label %.lr.ph, label %.critedge, !llvm.loop !12

.critedge:                                        ; preds = %.lr.ph, %9, %1
  %.1.lcssa = phi i32 [ %spec.select, %1 ], [ %10, %9 ], [ %.113, %.lr.ph ]
  %13 = tail call zeroext i8 @tvb_get_uint8(ptr noundef %0, i32 noundef %.1.lcssa)
  switch i8 %13, label %18 [
    i8 -26, label %14
    i8 76, label %14
    i8 127, label %14
    i8 -77, label %14
    i8 7, label %14
    i8 25, label %14
    i8 -43, label %14
    i8 97, label %16
    i8 82, label %16
    i8 -98, label %16
    i8 42, label %16
  ]

14:                                               ; preds = %.critedge, %.critedge, %.critedge, %.critedge, %.critedge, %.critedge, %.critedge
  %15 = add i32 %.1.lcssa, 1
  br label %18

16:                                               ; preds = %.critedge, %.critedge, %.critedge, %.critedge
  %17 = add i32 %.1.lcssa, 2
  br label %18

18:                                               ; preds = %.critedge, %16, %14
  %.0 = phi i32 [ %17, %16 ], [ %15, %14 ], [ 8, %.critedge ]
  ret i32 %.0
}